; Function Attrs: nounwind sspstrong uwtable
define internal void @get_uuid(ptr noundef %obj, ptr noundef %v, ptr noundef %name, ptr noundef %opaque, ptr noundef %errp) #0 {
entry:
  %buffer = alloca [37 x i8], align 16
  %p = alloca ptr, align 8
  %call = tail call ptr @object_field_prop_ptr(ptr noundef %obj, ptr noundef %opaque) #10
  store ptr %buffer, ptr %p, align 8
  call void @qemu_uuid_unparse(ptr noundef %call, ptr noundef nonnull %buffer) #10
  %call2 = call zeroext i1 @visit_type_str(ptr noundef %v, ptr noundef %name, ptr noundef nonnull %p, ptr noundef %errp) #10
  ret void
}